; Function Attrs: mustprogress nofree norecurse nosync nounwind willreturn memory(argmem: read) uwtable
define internal range(i32 0, 2) i32 @intersectX0(ptr noundef readonly captures(none) %0, ptr noundef readonly captures(none) %1) #4 {
  %3 = getelementptr inbounds nuw i8, ptr %0, i64 56
  %4 = load i32, ptr %3, align 8, !tbaa !47
  %5 = getelementptr inbounds nuw i8, ptr %1, i64 64
  %6 = load i32, ptr %5, align 8, !tbaa !46
  %.not = icmp sgt i32 %4, %6
  br i1 %.not, label %.critedge, label %7

7:                                                ; preds = %2
  %8 = getelementptr inbounds nuw i8, ptr %1, i64 56
  %9 = load i32, ptr %8, align 8, !tbaa !47
  %10 = getelementptr inbounds nuw i8, ptr %0, i64 64
  %11 = load i32, ptr %10, align 8, !tbaa !46
  %.not24 = icmp sgt i32 %9, %11
  br i1 %.not24, label %.critedge, label %12

12:                                               ; preds = %7
  %13 = getelementptr inbounds nuw i8, ptr %0, i64 68
  %14 = load i32, ptr %13, align 4, !tbaa !48
  %15 = getelementptr inbounds nuw i8, ptr %1, i64 60
  %16 = load i32, ptr %15, align 4, !tbaa !49
  %17 = icmp slt i32 %14, %16
  br i1 %17, label %.critedge, label %18

18:                                               ; preds = %12
  %19 = getelementptr inbounds nuw i8, ptr %0, i64 60
  %20 = load i32, ptr %19, align 4, !tbaa !70
  %21 = getelementptr inbounds nuw i8, ptr %1, i64 68
  %22 = load i32, ptr %21, align 4, !tbaa !71
  %23 = add i32 %14, %22
  %24 = add i32 %20, %16
  %25 = sub i32 %23, %24
  %26 = sdiv i32 %25, 2
  %27 = getelementptr inbounds nuw i8, ptr %1, i64 20
  %28 = getelementptr inbounds nuw i8, ptr %1, i64 24
  %29 = load i32, ptr %28, align 4, !tbaa !40
  %30 = getelementptr inbounds nuw i8, ptr %0, i64 20
  %31 = getelementptr inbounds nuw i8, ptr %0, i64 24
  %32 = load i32, ptr %31, align 4, !tbaa !40
  %.neg = sub i32 %32, %29
  %33 = add i32 %.neg, %26
  %34 = load i32, ptr %27, align 4, !tbaa !34
  %35 = load i32, ptr %30, align 4, !tbaa !34
  %.not25 = icmp slt i32 %34, %35
  %36 = add i32 %9, %4
  %37 = sub i32 %11, %36
  %38 = add i32 %37, %6
  %39 = sdiv i32 %38, 2
  %.neg26 = sub i32 %34, %35
  %.neg27 = sub i32 %35, %34
  %.neg26.sink = select i1 %.not25, i32 %.neg26, i32 %.neg27
  %40 = add i32 %.neg26.sink, %39
  %41 = icmp sle i32 %33, %40
  %42 = zext i1 %41 to i32
  br label %.critedge

.critedge:                                        ; preds = %2, %12, %7, %18
  %.0 = phi i32 [ %42, %18 ], [ 0, %7 ], [ 1, %12 ], [ 0, %2 ]
  ret i32 %.0
}